; Function Attrs: mustprogress uwtable
define void @_ZN6casadi17SerializingStream8decorateEc(ptr nocapture noundef nonnull readonly align 8 dereferenceable(73) %0, i8 noundef signext %1) local_unnamed_addr #3 align 2 {
  %3 = getelementptr inbounds i8, ptr %0, i64 72
  %4 = load i8, ptr %3, align 8
  %5 = and i8 %4, 1
  %.not = icmp eq i8 %5, 0
  br i1 %.not, label %15, label %6

6:                                                ; preds = %2
  %7 = getelementptr inbounds i8, ptr %0, i64 64
  %8 = load ptr, ptr %7, align 8
  %9 = and i8 %1, 15
  %10 = add nuw nsw i8 %9, 97
  %11 = tail call noundef nonnull align 8 dereferenceable(8) ptr @_ZNSo3putEc(ptr noundef nonnull align 8 dereferenceable(8) %8, i8 noundef signext %10)
  %12 = load ptr, ptr %7, align 8
  %13 = lshr i8 %1, 4
  %narrow.i = add nuw nsw i8 %13, 97
  %14 = tail call noundef nonnull align 8 dereferenceable(8) ptr @_ZNSo3putEc(ptr noundef nonnull align 8 dereferenceable(8) %12, i8 noundef signext %narrow.i)
  br label %15

15:                                               ; preds = %6, %2
  ret void
}